; Function Attrs: mustprogress nofree norecurse nosync nounwind willreturn memory(readwrite, argmem: none, inaccessiblemem: none) uwtable
define void @b2World_SetMaximumLinearSpeed(i32 %0, float noundef %1) local_unnamed_addr #12 {
  %3 = and i32 %0, 65535
  %4 = zext nneg i32 %3 to i64
  %5 = getelementptr %struct.b2World, ptr @b2_worlds, i64 %4
  %6 = getelementptr i8, ptr %5, i64 -9
  %7 = load i8, ptr %6, align 1, !tbaa !35, !range !77, !noundef !78
  %8 = trunc nuw i8 %7 to i1
  br i1 %8, label %11, label %9

9:                                                ; preds = %2
  %10 = getelementptr i8, ptr %5, i64 -244
  store float %1, ptr %10, align 4, !tbaa !118
  br label %11

11:                                               ; preds = %2, %9
  ret void
}